target datalayout = "e-m:e-p270:32:32-p271:32:32-p272:64:64-i64:64-i128:128-f80:128-n8:16:32:64-S128"
target triple = "x86_64-pc-linux-gnu"

@rb_eEOFError = external global i64, align 8
@.str.193 = private unnamed_addr constant [20 x i8] c"end of file reached\00", align 1

; Function Attrs: inlinehint nounwind sspstrong willreturn memory(none) uwtable
define internal zeroext i1 @RB_NIL_P(i64 noundef %0) #5 {
  %2 = alloca i64, align 8
  store i64 %0, ptr %2, align 8, !tbaa !6
  %3 = load i64, ptr %2, align 8, !tbaa !6
  %4 = icmp eq i64 %3, 4
  ret i1 %4
}

; Function Attrs: nounwind sspstrong uwtable
define internal i64 @rb_gzreader_gets(i32 noundef %0, ptr noundef %1, i64 noundef %2) #0 {
  %4 = alloca i32, align 4
  %5 = alloca ptr, align 8
  %6 = alloca i64, align 8
  %7 = alloca i64, align 8
  store i32 %0, ptr %4, align 4, !tbaa !10
  store ptr %1, ptr %5, align 8, !tbaa !12
  store i64 %2, ptr %6, align 8, !tbaa !6
  call void @llvm.lifetime.start.p0(i64 8, ptr %7) #23
  %8 = load i32, ptr %4, align 4, !tbaa !10
  %9 = load ptr, ptr %5, align 8, !tbaa !12
  %10 = load i64, ptr %6, align 8, !tbaa !6
  %11 = call i64 @gzreader_gets(i32 noundef %8, ptr noundef %9, i64 noundef %10)
  store i64 %11, ptr %7, align 8, !tbaa !6
  %12 = load i64, ptr %7, align 8, !tbaa !6
  %13 = call zeroext i1 @RB_NIL_P(i64 noundef %12) #24
  br i1 %13, label %16, label %14

14:                                               ; preds = %3
  %15 = load i64, ptr %7, align 8, !tbaa !6
  call void @rb_lastline_set(i64 noundef %15)
  br label %16

16:                                               ; preds = %14, %3
  %17 = load i64, ptr %7, align 8, !tbaa !6
  call void @llvm.lifetime.end.p0(i64 8, ptr %7) #23
  ret i64 %17
}

; Function Attrs: nounwind sspstrong uwtable
define internal i64 @rb_gzreader_readline(i32 noundef %0, ptr noundef %1, i64 noundef %2) #0 {
  %4 = alloca i32, align 4
  %5 = alloca ptr, align 8
  %6 = alloca i64, align 8
  %7 = alloca i64, align 8
  store i32 %0, ptr %4, align 4, !tbaa !10
  store ptr %1, ptr %5, align 8, !tbaa !12
  store i64 %2, ptr %6, align 8, !tbaa !6
  call void @llvm.lifetime.start.p0(i64 8, ptr %7) #23
  %8 = load i32, ptr %4, align 4, !tbaa !10
  %9 = load ptr, ptr %5, align 8, !tbaa !12
  %10 = load i64, ptr %6, align 8, !tbaa !6
  %11 = call i64 @rb_gzreader_gets(i32 noundef %8, ptr noundef %9, i64 noundef %10)
  store i64 %11, ptr %7, align 8, !tbaa !6
  %12 = load i64, ptr %7, align 8, !tbaa !6
  %13 = call zeroext i1 @RB_NIL_P(i64 noundef %12) #24
  br i1 %13, label %14, label %16

14:                                               ; preds = %3
  %15 = load i64, ptr @rb_eEOFError, align 8, !tbaa !6
  call void (i64, ptr, ...) @rb_raise(i64 noundef %15, ptr noundef @.str.193) #26
  unreachable

16:                                               ; preds = %3
  %17 = load i64, ptr %7, align 8, !tbaa !6
  call void @llvm.lifetime.end.p0(i64 8, ptr %7) #23
  ret i64 %17
}