; Function Attrs: nounwind sspstrong uwtable
define internal range(i64 5, 4) i64 @rb_gzreader_readline(i32 noundef %0, ptr noundef readonly captures(none) %1, i64 noundef %2) #0 {
  %4 = tail call fastcc i64 @gzreader_gets(i32 noundef %0, ptr noundef readonly %1, i64 noundef %2)
  %5 = icmp eq i64 %4, 4
  br i1 %5, label %6, label %8

6:                                                ; preds = %3
  %7 = load i64, ptr @rb_eEOFError, align 8, !tbaa !6
  tail call void (i64, ptr, ...) @rb_raise(i64 noundef %7, ptr noundef nonnull @.str.193) #19
  unreachable

8:                                                ; preds = %3
  tail call void @rb_lastline_set(i64 noundef %4) #18
  ret i64 %4
}